target datalayout = "e-m:e-p270:32:32-p271:32:32-p272:64:64-i64:64-i128:128-f80:128-n8:16:32:64-S128"
target triple = "x86_64-pc-linux-gnu"

@.str.55 = private unnamed_addr constant [9 x i8] c"fr.nlpid\00", align 1
@fr_encap = internal global i32 0, align 4
@chdlc_cap_handle = internal global ptr null, align 8
@eth_cap_handle = internal global ptr null, align 8

; Function Attrs: null_pointer_is_valid sspstrong uwtable
define internal zeroext i1 @capture_fr(ptr noundef %0, i32 noundef %1, i32 noundef %2, ptr noundef %3, ptr noundef %4) #0 {
  %6 = alloca i1, align 1
  %7 = alloca ptr, align 8
  %8 = alloca i32, align 4
  %9 = alloca i32, align 4
  %10 = alloca ptr, align 8
  %11 = alloca ptr, align 8
  %12 = alloca i8, align 1
  %13 = alloca i32, align 4
  %14 = alloca i8, align 1
  %15 = alloca i8, align 1
  %16 = alloca i32, align 4
  store ptr %0, ptr %7, align 8
  store i32 %1, ptr %8, align 4
  store i32 %2, ptr %9, align 4
  store ptr %3, ptr %10, align 8
  store ptr %4, ptr %11, align 8
  call void @llvm.lifetime.start.p0(i64 1, ptr %12) #4
  call void @llvm.lifetime.start.p0(i64 4, ptr %13) #4
  call void @llvm.lifetime.start.p0(i64 1, ptr %14) #4
  call void @llvm.lifetime.start.p0(i64 1, ptr %15) #4
  %17 = load i32, ptr %8, align 4
  %18 = add i32 %17, 1
  %19 = load i32, ptr %8, align 4
  %20 = icmp ugt i32 %18, %19
  br i1 %20, label %21, label %26

21:                                               ; preds = %5
  %22 = load i32, ptr %8, align 4
  %23 = add i32 %22, 1
  %24 = load i32, ptr %9, align 4
  %25 = icmp ule i32 %23, %24
  br i1 %25, label %27, label %26

26:                                               ; preds = %21, %5
  store i1 false, ptr %6, align 1
  store i32 1, ptr %16, align 4
  br label %267

27:                                               ; preds = %21
  %28 = load ptr, ptr %7, align 8
  %29 = load i32, ptr %8, align 4
  %30 = sext i32 %29 to i64
  %31 = getelementptr i8, ptr %28, i64 %30
  %32 = load i8, ptr %31, align 1
  store i8 %32, ptr %12, align 1
  %33 = load i8, ptr %12, align 1
  %34 = zext i8 %33 to i32
  %35 = and i32 %34, 1
  %36 = icmp ne i32 %35, 0
  br i1 %36, label %37, label %38

37:                                               ; preds = %27
  store i1 false, ptr %6, align 1
  store i32 1, ptr %16, align 4
  br label %267

38:                                               ; preds = %27
  %39 = load i8, ptr %12, align 1
  %40 = zext i8 %39 to i32
  %41 = and i32 %40, 252
  %42 = ashr i32 %41, 2
  store i32 %42, ptr %13, align 4
  %43 = load i32, ptr %8, align 4
  %44 = add i32 %43, 1
  store i32 %44, ptr %8, align 4
  %45 = load i32, ptr %8, align 4
  %46 = add i32 %45, 1
  %47 = load i32, ptr %8, align 4
  %48 = icmp ugt i32 %46, %47
  br i1 %48, label %49, label %54

49:                                               ; preds = %38
  %50 = load i32, ptr %8, align 4
  %51 = add i32 %50, 1
  %52 = load i32, ptr %9, align 4
  %53 = icmp ule i32 %51, %52
  br i1 %53, label %55, label %54

54:                                               ; preds = %49, %38
  store i1 false, ptr %6, align 1
  store i32 1, ptr %16, align 4
  br label %267

55:                                               ; preds = %49
  %56 = load ptr, ptr %7, align 8
  %57 = load i32, ptr %8, align 4
  %58 = sext i32 %57 to i64
  %59 = getelementptr i8, ptr %56, i64 %58
  %60 = load i8, ptr %59, align 1
  store i8 %60, ptr %12, align 1
  %61 = load i32, ptr %13, align 4
  %62 = shl i32 %61, 4
  %63 = load i8, ptr %12, align 1
  %64 = zext i8 %63 to i32
  %65 = and i32 %64, 240
  %66 = ashr i32 %65, 4
  %67 = or i32 %62, %66
  store i32 %67, ptr %13, align 4
  %68 = load i32, ptr %8, align 4
  %69 = add i32 %68, 1
  store i32 %69, ptr %8, align 4
  %70 = load i8, ptr %12, align 1
  %71 = zext i8 %70 to i32
  %72 = and i32 %71, 1
  %73 = icmp ne i32 %72, 0
  br i1 %73, label %162, label %74

74:                                               ; preds = %55
  %75 = load i32, ptr %8, align 4
  %76 = add i32 %75, 1
  %77 = load i32, ptr %8, align 4
  %78 = icmp ugt i32 %76, %77
  br i1 %78, label %79, label %84

79:                                               ; preds = %74
  %80 = load i32, ptr %8, align 4
  %81 = add i32 %80, 1
  %82 = load i32, ptr %9, align 4
  %83 = icmp ule i32 %81, %82
  br i1 %83, label %85, label %84

84:                                               ; preds = %79, %74
  store i1 false, ptr %6, align 1
  store i32 1, ptr %16, align 4
  br label %267

85:                                               ; preds = %79
  %86 = load ptr, ptr %7, align 8
  %87 = load i32, ptr %8, align 4
  %88 = sext i32 %87 to i64
  %89 = getelementptr i8, ptr %86, i64 %88
  %90 = load i8, ptr %89, align 1
  store i8 %90, ptr %12, align 1
  %91 = load i8, ptr %12, align 1
  %92 = zext i8 %91 to i32
  %93 = and i32 %92, 1
  %94 = icmp ne i32 %93, 0
  br i1 %94, label %147, label %95

95:                                               ; preds = %85
  %96 = load i32, ptr %13, align 4
  %97 = shl i32 %96, 7
  %98 = load i8, ptr %12, align 1
  %99 = zext i8 %98 to i32
  %100 = and i32 %99, 254
  %101 = ashr i32 %100, 1
  %102 = or i32 %97, %101
  store i32 %102, ptr %13, align 4
  %103 = load i32, ptr %8, align 4
  %104 = add i32 %103, 1
  store i32 %104, ptr %8, align 4
  %105 = load i32, ptr %8, align 4
  %106 = add i32 %105, 1
  %107 = load i32, ptr %8, align 4
  %108 = icmp ugt i32 %106, %107
  br i1 %108, label %109, label %114

109:                                              ; preds = %95
  %110 = load i32, ptr %8, align 4
  %111 = add i32 %110, 1
  %112 = load i32, ptr %9, align 4
  %113 = icmp ule i32 %111, %112
  br i1 %113, label %115, label %114

114:                                              ; preds = %109, %95
  store i1 false, ptr %6, align 1
  store i32 1, ptr %16, align 4
  br label %267

115:                                              ; preds = %109
  %116 = load ptr, ptr %7, align 8
  %117 = load i32, ptr %8, align 4
  %118 = sext i32 %117 to i64
  %119 = getelementptr i8, ptr %116, i64 %118
  %120 = load i8, ptr %119, align 1
  store i8 %120, ptr %12, align 1
  br label %121

121:                                              ; preds = %140, %115
  %122 = load i8, ptr %12, align 1
  %123 = zext i8 %122 to i32
  %124 = and i32 %123, 1
  %125 = icmp ne i32 %124, 0
  %126 = xor i1 %125, true
  br i1 %126, label %127, label %146

127:                                              ; preds = %121
  %128 = load i32, ptr %8, align 4
  %129 = add i32 %128, 1
  store i32 %129, ptr %8, align 4
  %130 = load i32, ptr %8, align 4
  %131 = add i32 %130, 1
  %132 = load i32, ptr %8, align 4
  %133 = icmp ugt i32 %131, %132
  br i1 %133, label %134, label %139

134:                                              ; preds = %127
  %135 = load i32, ptr %8, align 4
  %136 = add i32 %135, 1
  %137 = load i32, ptr %9, align 4
  %138 = icmp ule i32 %136, %137
  br i1 %138, label %140, label %139

139:                                              ; preds = %134, %127
  store i1 false, ptr %6, align 1
  store i32 1, ptr %16, align 4
  br label %267

140:                                              ; preds = %134
  %141 = load ptr, ptr %7, align 8
  %142 = load i32, ptr %8, align 4
  %143 = sext i32 %142 to i64
  %144 = getelementptr i8, ptr %141, i64 %143
  %145 = load i8, ptr %144, align 1
  store i8 %145, ptr %12, align 1
  br label %121, !llvm.loop !6

146:                                              ; preds = %121
  br label %147

147:                                              ; preds = %146, %85
  %148 = load i8, ptr %12, align 1
  %149 = zext i8 %148 to i32
  %150 = and i32 %149, 2
  %151 = icmp ne i32 %150, 0
  br i1 %151, label %152, label %153

152:                                              ; preds = %147
  br label %161

153:                                              ; preds = %147
  %154 = load i32, ptr %13, align 4
  %155 = shl i32 %154, 6
  %156 = load i8, ptr %12, align 1
  %157 = zext i8 %156 to i32
  %158 = and i32 %157, 252
  %159 = ashr i32 %158, 2
  %160 = or i32 %155, %159
  store i32 %160, ptr %13, align 4
  br label %161

161:                                              ; preds = %153, %152
  br label %162

162:                                              ; preds = %161, %55
  %163 = load i32, ptr @fr_encap, align 4
  switch i32 %163, label %266 [
    i32 0, label %164
    i32 1, label %253
    i32 2, label %254
  ]

164:                                              ; preds = %162
  %165 = load i32, ptr %8, align 4
  %166 = add i32 %165, 1
  %167 = load i32, ptr %8, align 4
  %168 = icmp ugt i32 %166, %167
  br i1 %168, label %169, label %174

169:                                              ; preds = %164
  %170 = load i32, ptr %8, align 4
  %171 = add i32 %170, 1
  %172 = load i32, ptr %9, align 4
  %173 = icmp ule i32 %171, %172
  br i1 %173, label %175, label %174

174:                                              ; preds = %169, %164
  store i1 false, ptr %6, align 1
  store i32 1, ptr %16, align 4
  br label %267

175:                                              ; preds = %169
  %176 = load ptr, ptr %7, align 8
  %177 = load i32, ptr %8, align 4
  %178 = sext i32 %177 to i64
  %179 = getelementptr i8, ptr %176, i64 %178
  %180 = load i8, ptr %179, align 1
  store i8 %180, ptr %14, align 1
  %181 = load i8, ptr %14, align 1
  %182 = zext i8 %181 to i32
  %183 = icmp eq i32 %182, 3
  br i1 %183, label %184, label %236

184:                                              ; preds = %175
  %185 = load i32, ptr %8, align 4
  %186 = add i32 %185, 1
  store i32 %186, ptr %8, align 4
  %187 = load i32, ptr %8, align 4
  %188 = add i32 %187, 1
  %189 = load i32, ptr %8, align 4
  %190 = icmp ugt i32 %188, %189
  br i1 %190, label %191, label %196

191:                                              ; preds = %184
  %192 = load i32, ptr %8, align 4
  %193 = add i32 %192, 1
  %194 = load i32, ptr %9, align 4
  %195 = icmp ule i32 %193, %194
  br i1 %195, label %197, label %196

196:                                              ; preds = %191, %184
  store i1 false, ptr %6, align 1
  store i32 1, ptr %16, align 4
  br label %267

197:                                              ; preds = %191
  %198 = load ptr, ptr %7, align 8
  %199 = load i32, ptr %8, align 4
  %200 = sext i32 %199 to i64
  %201 = getelementptr i8, ptr %198, i64 %200
  %202 = load i8, ptr %201, align 1
  store i8 %202, ptr %15, align 1
  %203 = load i8, ptr %15, align 1
  %204 = zext i8 %203 to i32
  %205 = icmp eq i32 %204, 0
  br i1 %205, label %206, label %225

206:                                              ; preds = %197
  %207 = load i32, ptr %8, align 4
  %208 = add i32 %207, 1
  store i32 %208, ptr %8, align 4
  %209 = load i32, ptr %8, align 4
  %210 = add i32 %209, 1
  %211 = load i32, ptr %8, align 4
  %212 = icmp ugt i32 %210, %211
  br i1 %212, label %213, label %218

213:                                              ; preds = %206
  %214 = load i32, ptr %8, align 4
  %215 = add i32 %214, 1
  %216 = load i32, ptr %9, align 4
  %217 = icmp ule i32 %215, %216
  br i1 %217, label %219, label %218

218:                                              ; preds = %213, %206
  store i1 false, ptr %6, align 1
  store i32 1, ptr %16, align 4
  br label %267

219:                                              ; preds = %213
  %220 = load ptr, ptr %7, align 8
  %221 = load i32, ptr %8, align 4
  %222 = sext i32 %221 to i64
  %223 = getelementptr i8, ptr %220, i64 %222
  %224 = load i8, ptr %223, align 1
  store i8 %224, ptr %15, align 1
  br label %225

225:                                              ; preds = %219, %197
  %226 = load i32, ptr %8, align 4
  %227 = add i32 %226, 1
  store i32 %227, ptr %8, align 4
  %228 = load i8, ptr %15, align 1
  %229 = zext i8 %228 to i32
  %230 = load ptr, ptr %7, align 8
  %231 = load i32, ptr %8, align 4
  %232 = load i32, ptr %9, align 4
  %233 = load ptr, ptr %10, align 8
  %234 = load ptr, ptr %11, align 8
  %235 = call zeroext i1 @try_capture_dissector(ptr noundef @.str.55, i32 noundef %229, ptr noundef %230, i32 noundef %231, i32 noundef %232, ptr noundef %233, ptr noundef %234)
  store i1 %235, ptr %6, align 1
  store i32 1, ptr %16, align 4
  br label %267

236:                                              ; preds = %175
  %237 = load i32, ptr %13, align 4
  %238 = icmp eq i32 %237, 0
  br i1 %238, label %239, label %240

239:                                              ; preds = %236
  store i1 false, ptr %6, align 1
  store i32 1, ptr %16, align 4
  br label %267

240:                                              ; preds = %236
  %241 = load i8, ptr %14, align 1
  %242 = zext i8 %241 to i32
  %243 = icmp eq i32 %242, 175
  br i1 %243, label %244, label %245

244:                                              ; preds = %240
  store i1 false, ptr %6, align 1
  store i32 1, ptr %16, align 4
  br label %267

245:                                              ; preds = %240
  %246 = load ptr, ptr @chdlc_cap_handle, align 8
  %247 = load ptr, ptr %7, align 8
  %248 = load i32, ptr %8, align 4
  %249 = load i32, ptr %9, align 4
  %250 = load ptr, ptr %10, align 8
  %251 = load ptr, ptr %11, align 8
  %252 = call zeroext i1 @call_capture_dissector(ptr noundef %246, ptr noundef %247, i32 noundef %248, i32 noundef %249, ptr noundef %250, ptr noundef %251)
  store i1 %252, ptr %6, align 1
  store i32 1, ptr %16, align 4
  br label %267

253:                                              ; preds = %162
  store i1 false, ptr %6, align 1
  store i32 1, ptr %16, align 4
  br label %267

254:                                              ; preds = %162
  %255 = load i32, ptr %13, align 4
  %256 = icmp ne i32 %255, 0
  br i1 %256, label %257, label %265

257:                                              ; preds = %254
  %258 = load ptr, ptr @eth_cap_handle, align 8
  %259 = load ptr, ptr %7, align 8
  %260 = load i32, ptr %8, align 4
  %261 = load i32, ptr %9, align 4
  %262 = load ptr, ptr %10, align 8
  %263 = load ptr, ptr %11, align 8
  %264 = call zeroext i1 @call_capture_dissector(ptr noundef %258, ptr noundef %259, i32 noundef %260, i32 noundef %261, ptr noundef %262, ptr noundef %263)
  store i1 %264, ptr %6, align 1
  store i32 1, ptr %16, align 4
  br label %267

265:                                              ; preds = %254
  store i1 false, ptr %6, align 1
  store i32 1, ptr %16, align 4
  br label %267

266:                                              ; preds = %162
  store i1 false, ptr %6, align 1
  store i32 1, ptr %16, align 4
  br label %267

267:                                              ; preds = %266, %265, %257, %253, %245, %244, %239, %225, %218, %196, %174, %139, %114, %84, %54, %37, %26
  call void @llvm.lifetime.end.p0(i64 1, ptr %15) #4
  call void @llvm.lifetime.end.p0(i64 1, ptr %14) #4
  call void @llvm.lifetime.end.p0(i64 4, ptr %13) #4
  call void @llvm.lifetime.end.p0(i64 1, ptr %12) #4
  %268 = load i1, ptr %6, align 1
  ret i1 %268
}