; Function Attrs: null_pointer_is_valid sspstrong uwtable
define internal zeroext i1 @capture_fr(ptr noundef %0, i32 noundef %1, i32 noundef %2, ptr noundef %3, ptr noundef %4) #0 {
  %6 = add i32 %1, 1
  %or.cond.not = icmp ult i32 %1, %2
  br i1 %or.cond.not, label %7, label %.loopexit129

7:                                                ; preds = %5
  %8 = sext i32 %1 to i64
  %9 = getelementptr i8, ptr %0, i64 %8
  %10 = load i8, ptr %9, align 1
  %11 = zext i8 %10 to i32
  %12 = and i32 %11, 1
  %.not107 = icmp eq i32 %12, 0
  br i1 %.not107, label %13, label %.loopexit129

13:                                               ; preds = %7
  %14 = add i32 %1, 2
  %15 = icmp ule i32 %14, %6
  %.not108 = icmp ugt i32 %14, %2
  %or.cond121 = or i1 %15, %.not108
  br i1 %or.cond121, label %.loopexit129, label %16

16:                                               ; preds = %13
  %17 = sext i32 %6 to i64
  %18 = getelementptr i8, ptr %0, i64 %17
  %19 = load i8, ptr %18, align 1
  %20 = shl nuw nsw i32 %11, 2
  %21 = and i32 %20, 1008
  %22 = zext i8 %19 to i32
  %23 = lshr i32 %22, 4
  %24 = or disjoint i32 %23, %21
  %25 = and i32 %22, 1
  %.not109 = icmp eq i32 %25, 0
  br i1 %.not109, label %26, label %51

26:                                               ; preds = %16
  %27 = add i32 %1, 3
  %28 = icmp ule i32 %27, %14
  %.not110 = icmp ugt i32 %27, %2
  %or.cond122 = or i1 %28, %.not110
  br i1 %or.cond122, label %.loopexit129, label %29

29:                                               ; preds = %26
  %30 = sext i32 %14 to i64
  %31 = getelementptr i8, ptr %0, i64 %30
  %32 = load i8, ptr %31, align 1
  %33 = zext i8 %32 to i32
  %34 = and i32 %33, 1
  %.not111 = icmp eq i32 %34, 0
  br i1 %.not111, label %35, label %.loopexit

35:                                               ; preds = %29
  %36 = shl nuw nsw i32 %24, 7
  %37 = lshr exact i32 %33, 1
  %38 = or disjoint i32 %37, %36
  %39 = add i32 %1, 4
  %40 = icmp ule i32 %39, %27
  %.not112 = icmp ugt i32 %39, %2
  %or.cond123 = or i1 %40, %.not112
  br i1 %or.cond123, label %.loopexit129, label %.preheader

.preheader:                                       ; preds = %35, %42
  %.2 = phi i32 [ %43, %42 ], [ %27, %35 ]
  %.pn = sext i32 %.2 to i64
  %.191.in = getelementptr i8, ptr %0, i64 %.pn
  %.191 = load i8, ptr %.191.in, align 1
  %41 = and i8 %.191, 1
  %.not113 = icmp eq i8 %41, 0
  br i1 %.not113, label %42, label %.loopexit.loopexit

42:                                               ; preds = %.preheader
  %43 = add nuw i32 %.2, 1
  %44 = add i32 %.2, 2
  %45 = icmp ule i32 %44, %43
  %.not114 = icmp ugt i32 %44, %2
  %or.cond124 = or i1 %45, %.not114
  br i1 %or.cond124, label %.loopexit129, label %.preheader, !llvm.loop !6

.loopexit.loopexit:                               ; preds = %.preheader
  %.pre = zext i8 %.191 to i32
  br label %.loopexit

.loopexit:                                        ; preds = %.loopexit.loopexit, %29
  %.pre-phi = phi i32 [ %.pre, %.loopexit.loopexit ], [ %33, %29 ]
  %.193 = phi i32 [ %.2, %.loopexit.loopexit ], [ %14, %29 ]
  %.1 = phi i32 [ %38, %.loopexit.loopexit ], [ %24, %29 ]
  %46 = and i32 %.pre-phi, 2
  %.not115 = icmp eq i32 %46, 0
  br i1 %.not115, label %47, label %51

47:                                               ; preds = %.loopexit
  %48 = shl nuw nsw i32 %.1, 6
  %49 = lshr i32 %.pre-phi, 2
  %50 = or disjoint i32 %48, %49
  br label %51

51:                                               ; preds = %47, %.loopexit, %16
  %.092 = phi i32 [ %14, %16 ], [ %.193, %.loopexit ], [ %.193, %47 ]
  %.089 = phi i32 [ %24, %16 ], [ %.1, %.loopexit ], [ %50, %47 ]
  %52 = load i32, ptr @fr_encap, align 4
  switch i32 %52, label %.loopexit129 [
    i32 0, label %53
    i32 2, label %85
  ]

53:                                               ; preds = %51
  %54 = add i32 %.092, 1
  %or.cond125.not = icmp ult i32 %.092, %2
  br i1 %or.cond125.not, label %55, label %.loopexit129

55:                                               ; preds = %53
  %56 = sext i32 %.092 to i64
  %57 = getelementptr i8, ptr %0, i64 %56
  %58 = load i8, ptr %57, align 1
  %59 = icmp eq i8 %58, 3
  br i1 %59, label %60, label %79

60:                                               ; preds = %55
  %61 = add i32 %.092, 2
  %62 = icmp ule i32 %61, %54
  %.not119 = icmp ugt i32 %61, %2
  %or.cond126 = or i1 %62, %.not119
  br i1 %or.cond126, label %.loopexit129, label %63

63:                                               ; preds = %60
  %64 = sext i32 %54 to i64
  %65 = getelementptr i8, ptr %0, i64 %64
  %66 = load i8, ptr %65, align 1
  %67 = icmp eq i8 %66, 0
  br i1 %67, label %68, label %75

68:                                               ; preds = %63
  %69 = add i32 %.092, 3
  %70 = icmp ule i32 %69, %61
  %.not120 = icmp ugt i32 %69, %2
  %or.cond127 = or i1 %70, %.not120
  br i1 %or.cond127, label %.loopexit129, label %71

71:                                               ; preds = %68
  %72 = sext i32 %61 to i64
  %73 = getelementptr i8, ptr %0, i64 %72
  %74 = load i8, ptr %73, align 1
  br label %75

75:                                               ; preds = %71, %63
  %.3 = phi i32 [ %61, %71 ], [ %54, %63 ]
  %.0 = phi i8 [ %74, %71 ], [ %66, %63 ]
  %76 = add nuw i32 %.3, 1
  %77 = zext i8 %.0 to i32
  %78 = tail call zeroext i1 @try_capture_dissector(ptr noundef nonnull @.str.55, i32 noundef %77, ptr noundef %0, i32 noundef %76, i32 noundef %2, ptr noundef %3, ptr noundef %4)
  br label %.loopexit129

79:                                               ; preds = %55
  %80 = icmp eq i32 %.089, 0
  %81 = icmp eq i8 %58, -81
  %or.cond128 = or i1 %80, %81
  br i1 %or.cond128, label %.loopexit129, label %82

82:                                               ; preds = %79
  %83 = load ptr, ptr @chdlc_cap_handle, align 8
  %84 = tail call zeroext i1 @call_capture_dissector(ptr noundef %83, ptr noundef %0, i32 noundef %.092, i32 noundef %2, ptr noundef %3, ptr noundef %4)
  br label %.loopexit129

85:                                               ; preds = %51
  %.not116 = icmp eq i32 %.089, 0
  br i1 %.not116, label %.loopexit129, label %86

86:                                               ; preds = %85
  %87 = load ptr, ptr @eth_cap_handle, align 8
  %88 = tail call zeroext i1 @call_capture_dissector(ptr noundef %87, ptr noundef %0, i32 noundef %.092, i32 noundef %2, ptr noundef %3, ptr noundef %4)
  br label %.loopexit129

.loopexit129:                                     ; preds = %42, %51, %85, %79, %68, %60, %53, %35, %26, %13, %7, %5, %86, %82, %75
  %.088 = phi i1 [ %88, %86 ], [ %78, %75 ], [ %84, %82 ], [ false, %5 ], [ false, %7 ], [ false, %13 ], [ false, %26 ], [ false, %35 ], [ false, %53 ], [ false, %60 ], [ false, %68 ], [ false, %79 ], [ false, %85 ], [ false, %51 ], [ false, %42 ]
  ret i1 %.088
}